; Function Attrs: mustprogress nofree norecurse nosync nounwind willreturn memory(read, inaccessiblemem: none) uwtable
define dso_local noundef i32 @_ZNK16b3GpuNarrowPhase17getNumContactsGpuEv(ptr noundef nonnull readonly align 8 captures(none) dereferenceable(56) %0) local_unnamed_addr #13 align 2 {
  %2 = getelementptr inbounds nuw i8, ptr %0, i64 8
  %3 = load ptr, ptr %2, align 8, !tbaa !7
  %4 = getelementptr inbounds nuw i8, ptr %3, i64 304
  %5 = getelementptr inbounds nuw i8, ptr %3, i64 320
  %6 = load i32, ptr %5, align 8, !tbaa !426
  %7 = sext i32 %6 to i64
  %8 = getelementptr inbounds [2 x ptr], ptr %4, i64 0, i64 %7
  %9 = load ptr, ptr %8, align 8, !tbaa !115
  %10 = getelementptr inbounds nuw i8, ptr %9, i64 8
  %11 = load i64, ptr %10, align 8, !tbaa !229
  %12 = trunc i64 %11 to i32
  ret i32 %12
}